target datalayout = "e-m:e-p270:32:32-p271:32:32-p272:64:64-i64:64-i128:128-f80:128-n8:16:32:64-S128"
target triple = "x86_64-pc-linux-gnu"

%struct.FxuCube = type { i32, ptr, ptr, %struct.FxuListLit, ptr, ptr, ptr }
%struct.FxuListLit = type { ptr, ptr, i32 }
%struct.FxuPair = type { i32, i32, i32, ptr, ptr, ptr, i32, i32, ptr, ptr }

; Function Attrs: nounwind uwtable
define ptr @Fxu_PairAlloc(ptr noundef %0, ptr noundef %1, ptr noundef %2) #0 {
  %4 = alloca ptr, align 8
  %5 = alloca ptr, align 8
  %6 = alloca ptr, align 8
  %7 = alloca ptr, align 8
  store ptr %0, ptr %4, align 8, !tbaa !21
  store ptr %1, ptr %5, align 8, !tbaa !8
  store ptr %2, ptr %6, align 8, !tbaa !8
  call void @llvm.lifetime.start.p0(i64 8, ptr %7) #6
  %8 = load ptr, ptr %4, align 8, !tbaa !21
  %9 = call ptr @Fxu_MemFetch(ptr noundef %8, i32 noundef 64)
  store ptr %9, ptr %7, align 8, !tbaa !29
  %10 = load ptr, ptr %7, align 8, !tbaa !29
  call void @llvm.memset.p0.i64(ptr align 8 %10, i8 0, i64 64, i1 false)
  %11 = load ptr, ptr %5, align 8, !tbaa !8
  %12 = load ptr, ptr %7, align 8, !tbaa !29
  %13 = getelementptr inbounds nuw %struct.FxuPair, ptr %12, i32 0, i32 4
  store ptr %11, ptr %13, align 8, !tbaa !35
  %14 = load ptr, ptr %6, align 8, !tbaa !8
  %15 = load ptr, ptr %7, align 8, !tbaa !29
  %16 = getelementptr inbounds nuw %struct.FxuPair, ptr %15, i32 0, i32 5
  store ptr %14, ptr %16, align 8, !tbaa !36
  %17 = load ptr, ptr %5, align 8, !tbaa !8
  %18 = getelementptr inbounds nuw %struct.FxuCube, ptr %17, i32 0, i32 0
  %19 = load i32, ptr %18, align 8, !tbaa !20
  %20 = load ptr, ptr %7, align 8, !tbaa !29
  %21 = getelementptr inbounds nuw %struct.FxuPair, ptr %20, i32 0, i32 6
  store i32 %19, ptr %21, align 8, !tbaa !47
  %22 = load ptr, ptr %6, align 8, !tbaa !8
  %23 = getelementptr inbounds nuw %struct.FxuCube, ptr %22, i32 0, i32 0
  %24 = load i32, ptr %23, align 8, !tbaa !20
  %25 = load ptr, ptr %7, align 8, !tbaa !29
  %26 = getelementptr inbounds nuw %struct.FxuPair, ptr %25, i32 0, i32 7
  store i32 %24, ptr %26, align 4, !tbaa !48
  %27 = load ptr, ptr %7, align 8, !tbaa !29
  call void @llvm.lifetime.end.p0(i64 8, ptr %7) #6
  ret ptr %27
}