; Function Attrs: nounwind uwtable
define noundef ptr @Fxu_PairAlloc(ptr noundef %0, ptr noundef %1, ptr noundef %2) local_unnamed_addr #10 {
  %4 = tail call ptr @Fxu_MemFetch(ptr noundef %0, i32 noundef 64) #15
  tail call void @llvm.memset.p0.i64(ptr noundef nonnull align 8 dereferenceable(64) %4, i8 0, i64 64, i1 false)
  %5 = getelementptr inbounds nuw i8, ptr %4, i64 24
  store ptr %1, ptr %5, align 8, !tbaa !27
  %6 = getelementptr inbounds nuw i8, ptr %4, i64 32
  store ptr %2, ptr %6, align 8, !tbaa !29
  %7 = load i32, ptr %1, align 8, !tbaa !14
  %8 = getelementptr inbounds nuw i8, ptr %4, i64 40
  store i32 %7, ptr %8, align 8, !tbaa !40
  %9 = load i32, ptr %2, align 8, !tbaa !14
  %10 = getelementptr inbounds nuw i8, ptr %4, i64 44
  store i32 %9, ptr %10, align 4, !tbaa !41
  ret ptr %4
}